target datalayout = "e-m:e-p270:32:32-p271:32:32-p272:64:64-i64:64-i128:128-f80:128-n8:16:32:64-S128"
target triple = "x86_64-pc-linux-gnu"

; Function Attrs: nounwind sspstrong uwtable
define internal double @int_pair_to_real_inclusive(i32 noundef %0, i32 noundef %1) #0 {
  %3 = alloca i32, align 4
  %4 = alloca i32, align 4
  %5 = alloca double, align 8
  %6 = alloca i128, align 16
  %7 = alloca i128, align 16
  store i32 %0, ptr %3, align 4, !tbaa !19
  store i32 %1, ptr %4, align 4, !tbaa !19
  call void @llvm.lifetime.start.p0(i64 8, ptr %5) #24
  call void @llvm.lifetime.start.p0(i64 16, ptr %6) #24
  store i128 9007199254740993, ptr %6, align 16, !tbaa !45
  call void @llvm.lifetime.start.p0(i64 16, ptr %7) #24
  %8 = load i32, ptr %3, align 4, !tbaa !19
  %9 = zext i32 %8 to i128
  %10 = shl i128 %9, 32
  %11 = load i32, ptr %4, align 4, !tbaa !19
  %12 = zext i32 %11 to i128
  %13 = or i128 %10, %12
  store i128 %13, ptr %7, align 16, !tbaa !45
  %14 = load i128, ptr %7, align 16, !tbaa !45
  %15 = mul i128 %14, 9007199254740993
  %16 = lshr i128 %15, 64
  %17 = trunc i128 %16 to i64
  %18 = uitofp i64 %17 to double
  store double %18, ptr %5, align 8, !tbaa !47
  %19 = load double, ptr %5, align 8, !tbaa !47
  %20 = fmul double %19, 0x3CA0000000000000
  call void @llvm.lifetime.end.p0(i64 16, ptr %7) #24
  call void @llvm.lifetime.end.p0(i64 16, ptr %6) #24
  call void @llvm.lifetime.end.p0(i64 8, ptr %5) #24
  ret double %20
}

; Function Attrs: nounwind sspstrong uwtable
define internal double @int_pair_to_real_exclusive(i32 noundef %0, i32 noundef %1) #0 {
  %3 = alloca i32, align 4
  %4 = alloca i32, align 4
  store i32 %0, ptr %3, align 4, !tbaa !19
  store i32 %1, ptr %4, align 4, !tbaa !19
  %5 = load i32, ptr %3, align 4, !tbaa !19
  %6 = lshr i32 %5, 5
  store i32 %6, ptr %3, align 4, !tbaa !19
  %7 = load i32, ptr %4, align 4, !tbaa !19
  %8 = lshr i32 %7, 6
  store i32 %8, ptr %4, align 4, !tbaa !19
  %9 = load i32, ptr %3, align 4, !tbaa !19
  %10 = uitofp i32 %9 to double
  %11 = load i32, ptr %4, align 4, !tbaa !19
  %12 = uitofp i32 %11 to double
  %13 = call double @llvm.fmuladd.f64(double %10, double 0x4190000000000000, double %12)
  %14 = fmul double %13, 0x3CA0000000000000
  ret double %14
}

; Function Attrs: nounwind sspstrong uwtable
define dso_local double @rb_int_pair_to_real(i32 noundef %0, i32 noundef %1, i32 noundef %2) #0 {
  %4 = alloca double, align 8
  %5 = alloca i32, align 4
  %6 = alloca i32, align 4
  %7 = alloca i32, align 4
  store i32 %0, ptr %5, align 4, !tbaa !19
  store i32 %1, ptr %6, align 4, !tbaa !19
  store i32 %2, ptr %7, align 4, !tbaa !19
  %8 = load i32, ptr %7, align 4, !tbaa !19
  %9 = icmp ne i32 %8, 0
  br i1 %9, label %10, label %14

10:                                               ; preds = %3
  %11 = load i32, ptr %5, align 4, !tbaa !19
  %12 = load i32, ptr %6, align 4, !tbaa !19
  %13 = call double @int_pair_to_real_exclusive(i32 noundef %11, i32 noundef %12)
  store double %13, ptr %4, align 8
  br label %18

14:                                               ; preds = %3
  %15 = load i32, ptr %5, align 4, !tbaa !19
  %16 = load i32, ptr %6, align 4, !tbaa !19
  %17 = call double @int_pair_to_real_inclusive(i32 noundef %15, i32 noundef %16)
  store double %17, ptr %4, align 8
  br label %18

18:                                               ; preds = %14, %10
  %19 = load double, ptr %4, align 8
  ret double %19
}