; Function Attrs: mustprogress nofree norecurse nosync nounwind sspstrong willreturn memory(none) uwtable
define dso_local double @rb_int_pair_to_real(i32 noundef %0, i32 noundef %1, i32 noundef %2) local_unnamed_addr #4 {
  %.not = icmp eq i32 %2, 0
  br i1 %.not, label %10, label %4

4:                                                ; preds = %3
  %5 = lshr i32 %0, 5
  %6 = lshr i32 %1, 6
  %7 = uitofp nneg i32 %5 to double
  %8 = uitofp nneg i32 %6 to double
  %9 = tail call double @llvm.fmuladd.f64(double %7, double 0x4190000000000000, double %8)
  br label %19

10:                                               ; preds = %3
  %11 = zext i32 %0 to i128
  %12 = shl nuw nsw i128 %11, 32
  %13 = zext i32 %1 to i128
  %14 = or disjoint i128 %12, %13
  %15 = mul nuw nsw i128 %14, 9007199254740993
  %16 = lshr i128 %15, 64
  %17 = trunc nuw nsw i128 %16 to i64
  %18 = uitofp nneg i64 %17 to double
  br label %19

19:                                               ; preds = %10, %4
  %.0.in = phi double [ %9, %4 ], [ %18, %10 ]
  %.0 = fmul double %.0.in, 0x3CA0000000000000
  ret double %.0
}